#include <math.h>
#include <stdio.h>
#include <stdlib.h>
#include <string.h>

void main()
{
	int n;
	struct student
	{
		char num[50];
		char name[100];
		char sex;
		int age;
		char score[20];
		char add[100];
		struct student *before;
	}*thisNode,*newNode;
	for(n=1;;n++)
	{
		newNode=(struct student *)malloc(sizeof(struct student));
		if(newNode==NULL)
		{
			printf("error!");
			exit(-1);
		}
		scanf("%s",newNode->num);
		if(n==1)
			newNode->before=NULL;
		else
			newNode->before=thisNode;
		if(newNode->num[0]=='e')
			break;
		scanf("%s %c %d %s %s",newNode->name,&newNode->sex,
			&newNode->age,newNode->score,newNode->add);
		thisNode=newNode;
	}
	for(;;)
	{
		printf("%s %s %c %d %s %s\n",thisNode->num,thisNode->name,thisNode->sex,
			thisNode->age,thisNode->score,thisNode->add);
		if(thisNode->before==NULL)
			break;
		thisNode=thisNode->before;
	}
}